target datalayout = "e-m:e-p270:32:32-p271:32:32-p272:64:64-i64:64-i128:128-f80:128-n8:16:32:64-S128"
target triple = "x86_64-pc-linux-gnu"

@.str.60 = private unnamed_addr constant [5 x i8] c"test\00", align 1
@.str.62 = private unnamed_addr constant [10 x i8] c"testapp.c\00", align 1
@.str.63 = private unnamed_addr constant [9 x i8] c"p == ptr\00", align 1
@__PRETTY_FUNCTION__.cache_reuse_test = private unnamed_addr constant [40 x i8] c"enum test_return cache_reuse_test(void)\00", align 1

; Function Attrs: nounwind uwtable
define internal i32 @cache_reuse_test() #0 {
  %1 = alloca i32, align 4
  %2 = alloca i32, align 4
  %3 = alloca ptr, align 8
  %4 = alloca i32, align 4
  %5 = alloca ptr, align 8
  %6 = alloca ptr, align 8
  call void @llvm.lifetime.start.p0(i64 4, ptr %2) #12
  call void @llvm.lifetime.start.p0(i64 8, ptr %3) #12
  %7 = call ptr @cache_create(ptr noundef @.str.60, i64 noundef 4, i64 noundef 8)
  store ptr %7, ptr %3, align 8, !tbaa !4
  %8 = load ptr, ptr %3, align 8, !tbaa !4
  %9 = icmp eq ptr %8, null
  br i1 %9, label %10, label %11

10:                                               ; preds = %0
  store i32 2, ptr %1, align 4
  store i32 1, ptr %4, align 4
  br label %35

11:                                               ; preds = %0
  call void @llvm.lifetime.start.p0(i64 8, ptr %5) #12
  %12 = load ptr, ptr %3, align 8, !tbaa !4
  %13 = call ptr @cache_alloc(ptr noundef %12)
  store ptr %13, ptr %5, align 8, !tbaa !8
  %14 = load ptr, ptr %3, align 8, !tbaa !4
  %15 = load ptr, ptr %5, align 8, !tbaa !8
  call void @cache_free(ptr noundef %14, ptr noundef %15)
  store i32 0, ptr %2, align 4, !tbaa !10
  br label %16

16:                                               ; preds = %30, %11
  %17 = load i32, ptr %2, align 4, !tbaa !10
  %18 = icmp slt i32 %17, 100
  br i1 %18, label %19, label %33

19:                                               ; preds = %16
  call void @llvm.lifetime.start.p0(i64 8, ptr %6) #12
  %20 = load ptr, ptr %3, align 8, !tbaa !4
  %21 = call ptr @cache_alloc(ptr noundef %20)
  store ptr %21, ptr %6, align 8, !tbaa !8
  %22 = load ptr, ptr %6, align 8, !tbaa !8
  %23 = load ptr, ptr %5, align 8, !tbaa !8
  %24 = icmp eq ptr %22, %23
  br i1 %24, label %25, label %26

25:                                               ; preds = %19
  br label %27

26:                                               ; preds = %19
  call void @__assert_fail(ptr noundef @.str.63, ptr noundef @.str.62, i32 noundef 117, ptr noundef @__PRETTY_FUNCTION__.cache_reuse_test) #13
  unreachable

27:                                               ; preds = %25
  %28 = load ptr, ptr %3, align 8, !tbaa !4
  %29 = load ptr, ptr %5, align 8, !tbaa !8
  call void @cache_free(ptr noundef %28, ptr noundef %29)
  call void @llvm.lifetime.end.p0(i64 8, ptr %6) #12
  br label %30

30:                                               ; preds = %27
  %31 = load i32, ptr %2, align 4, !tbaa !10
  %32 = add nsw i32 %31, 1
  store i32 %32, ptr %2, align 4, !tbaa !10
  br label %16, !llvm.loop !12

33:                                               ; preds = %16
  %34 = load ptr, ptr %3, align 8, !tbaa !4
  call void @cache_destroy(ptr noundef %34)
  store i32 1, ptr %1, align 4
  store i32 1, ptr %4, align 4
  call void @llvm.lifetime.end.p0(i64 8, ptr %5) #12
  br label %35

35:                                               ; preds = %33, %10
  call void @llvm.lifetime.end.p0(i64 8, ptr %3) #12
  call void @llvm.lifetime.end.p0(i64 4, ptr %2) #12
  %36 = load i32, ptr %1, align 4
  ret i32 %36
}