; Function Attrs: nounwind uwtable
define internal range(i32 1, 3) i32 @cache_reuse_test() #0 {
  %1 = tail call ptr @cache_create(ptr noundef nonnull @.str.60, i64 noundef 4, i64 noundef 8) #21
  %2 = icmp eq ptr %1, null
  br i1 %2, label %12, label %3

3:                                                ; preds = %0
  %4 = tail call ptr @cache_alloc(ptr noundef nonnull %1) #21
  tail call void @cache_free(ptr noundef nonnull %1, ptr noundef %4) #21
  br label %5

5:                                                ; preds = %3, %9
  %.01215 = phi i32 [ 0, %3 ], [ %10, %9 ]
  %6 = tail call ptr @cache_alloc(ptr noundef nonnull %1) #21
  %7 = icmp eq ptr %6, %4
  br i1 %7, label %9, label %8

8:                                                ; preds = %5
  tail call void @__assert_fail(ptr noundef nonnull @.str.63, ptr noundef nonnull @.str.62, i32 noundef 117, ptr noundef nonnull @__PRETTY_FUNCTION__.cache_reuse_test) #22
  unreachable

9:                                                ; preds = %5
  tail call void @cache_free(ptr noundef nonnull %1, ptr noundef %4) #21
  %10 = add nuw nsw i32 %.01215, 1
  %exitcond.not = icmp eq i32 %10, 100
  br i1 %exitcond.not, label %11, label %5, !llvm.loop !4

11:                                               ; preds = %9
  tail call void @cache_destroy(ptr noundef nonnull %1) #21
  br label %12

12:                                               ; preds = %0, %11
  %.0 = phi i32 [ 1, %11 ], [ 2, %0 ]
  ret i32 %.0
}